target datalayout = "e-m:e-p270:32:32-p271:32:32-p272:64:64-i64:64-i128:128-f80:128-n8:16:32:64-S128"
target triple = "x86_64-pc-linux-gnu"

%"class.icu_77::UMutex" = type { [40 x i8], %"struct.std::atomic.1", ptr }
%"struct.std::atomic.1" = type { %"struct.std::__atomic_base.2" }
%"struct.std::__atomic_base.2" = type { ptr }
%struct.CReg = type <{ ptr, [4 x i16], [157 x i8], [3 x i8] }>

@_ZL9gCRegLock = internal global %"class.icu_77::UMutex" zeroinitializer, align 8
@_ZL9gCRegHead = internal global ptr null, align 8

; Function Attrs: mustprogress uwtable
define linkonce_odr noundef signext i8 @_ZN4CReg5unregEPKv(ptr noundef %0) #1 comdat align 2 {
  %2 = alloca ptr, align 8
  %3 = alloca i8, align 1
  %4 = alloca ptr, align 8
  store ptr %0, ptr %2, align 8, !tbaa !22
  call void @llvm.lifetime.start.p0(i64 1, ptr %3) #12
  store i8 0, ptr %3, align 1, !tbaa !47
  call void @umtx_lock_77(ptr noundef @_ZL9gCRegLock)
  call void @llvm.lifetime.start.p0(i64 8, ptr %4) #12
  store ptr @_ZL9gCRegHead, ptr %4, align 8, !tbaa !48
  br label %5

5:                                                ; preds = %23, %1
  %6 = load ptr, ptr %4, align 8, !tbaa !48
  %7 = load ptr, ptr %6, align 8, !tbaa !41
  %8 = icmp ne ptr %7, null
  br i1 %8, label %9, label %27

9:                                                ; preds = %5
  %10 = load ptr, ptr %4, align 8, !tbaa !48
  %11 = load ptr, ptr %10, align 8, !tbaa !41
  %12 = load ptr, ptr %2, align 8, !tbaa !22
  %13 = icmp eq ptr %11, %12
  br i1 %13, label %14, label %23

14:                                               ; preds = %9
  %15 = load ptr, ptr %2, align 8, !tbaa !22
  %16 = getelementptr inbounds nuw %struct.CReg, ptr %15, i32 0, i32 0
  %17 = load ptr, ptr %16, align 8, !tbaa !43
  %18 = load ptr, ptr %4, align 8, !tbaa !48
  store ptr %17, ptr %18, align 8, !tbaa !41
  %19 = load ptr, ptr %2, align 8, !tbaa !22
  %20 = icmp eq ptr %19, null
  br i1 %20, label %22, label %21

21:                                               ; preds = %14
  call void @_ZN6icu_777UMemorydlEPv(ptr noundef %19) #12
  br label %22

22:                                               ; preds = %21, %14
  store i8 1, ptr %3, align 1, !tbaa !47
  br label %27

23:                                               ; preds = %9
  %24 = load ptr, ptr %4, align 8, !tbaa !48
  %25 = load ptr, ptr %24, align 8, !tbaa !41
  %26 = getelementptr inbounds nuw %struct.CReg, ptr %25, i32 0, i32 0
  store ptr %26, ptr %4, align 8, !tbaa !48
  br label %5, !llvm.loop !51

27:                                               ; preds = %22, %5
  call void @umtx_unlock_77(ptr noundef @_ZL9gCRegLock)
  %28 = load i8, ptr %3, align 1, !tbaa !47
  call void @llvm.lifetime.end.p0(i64 8, ptr %4) #12
  call void @llvm.lifetime.end.p0(i64 1, ptr %3) #12
  ret i8 %28
}

; Function Attrs: inlinehint mustprogress nounwind uwtable
define internal noundef signext i8 @_ZL9U_SUCCESS10UErrorCode(i32 noundef %0) #2 {
  %2 = alloca i32, align 4
  store i32 %0, ptr %2, align 4, !tbaa !15
  %3 = load i32, ptr %2, align 4, !tbaa !15
  %4 = icmp sle i32 %3, 0
  %5 = zext i1 %4 to i8
  ret i8 %5
}

; Function Attrs: mustprogress uwtable
define signext i8 @ucurr_unregister_77(ptr noundef %0, ptr noundef %1) #1 {
  %3 = alloca i8, align 1
  %4 = alloca ptr, align 8
  %5 = alloca ptr, align 8
  store ptr %0, ptr %4, align 8, !tbaa !22
  store ptr %1, ptr %5, align 8, !tbaa !22
  %6 = load ptr, ptr %5, align 8, !tbaa !22
  %7 = icmp ne ptr %6, null
  br i1 %7, label %8, label %16

8:                                                ; preds = %2
  %9 = load ptr, ptr %5, align 8, !tbaa !22
  %10 = load i32, ptr %9, align 4, !tbaa !15
  %11 = call noundef signext i8 @_ZL9U_SUCCESS10UErrorCode(i32 noundef %10)
  %12 = icmp ne i8 %11, 0
  br i1 %12, label %13, label %16

13:                                               ; preds = %8
  %14 = load ptr, ptr %4, align 8, !tbaa !22
  %15 = call noundef signext i8 @_ZN4CReg5unregEPKv(ptr noundef %14)
  store i8 %15, ptr %3, align 1
  br label %17

16:                                               ; preds = %8, %2
  store i8 0, ptr %3, align 1
  br label %17

17:                                               ; preds = %16, %13
  %18 = load i8, ptr %3, align 1
  ret i8 %18
}