; Function Attrs: mustprogress uwtable
define signext range(i8 0, 2) i8 @ucurr_unregister_77(ptr noundef %0, ptr noundef readonly %1) local_unnamed_addr #1 {
  %.not = icmp eq ptr %1, null
  br i1 %.not, label %13, label %3

3:                                                ; preds = %2
  %4 = load i32, ptr %1, align 4, !tbaa !13
  %5 = icmp sgt i32 %4, 0
  br i1 %5, label %13, label %6

6:                                                ; preds = %3
  tail call void @umtx_lock_77(ptr noundef nonnull @_ZL9gCRegLock)
  br label %7

7:                                                ; preds = %9, %6
  %.0.i = phi ptr [ @_ZL9gCRegHead, %6 ], [ %8, %9 ]
  %8 = load ptr, ptr %.0.i, align 8, !tbaa !33
  %.not.i = icmp eq ptr %8, null
  br i1 %.not.i, label %_ZN4CReg5unregEPKv.exit, label %9

9:                                                ; preds = %7
  %10 = icmp eq ptr %8, %0
  br i1 %10, label %11, label %7, !llvm.loop !34

11:                                               ; preds = %9
  %12 = load ptr, ptr %0, align 8, !tbaa !28
  store ptr %12, ptr %.0.i, align 8, !tbaa !33
  tail call void @_ZN6icu_777UMemorydlEPv(ptr noundef nonnull %0) #20
  br label %_ZN4CReg5unregEPKv.exit

_ZN4CReg5unregEPKv.exit:                          ; preds = %7, %11
  %.07.i = phi i8 [ 1, %11 ], [ 0, %7 ]
  tail call void @umtx_unlock_77(ptr noundef nonnull @_ZL9gCRegLock)
  br label %13

13:                                               ; preds = %2, %3, %_ZN4CReg5unregEPKv.exit
  %.0 = phi i8 [ %.07.i, %_ZN4CReg5unregEPKv.exit ], [ 0, %3 ], [ 0, %2 ]
  ret i8 %.0
}